target datalayout = "e-m:e-p270:32:32-p271:32:32-p272:64:64-i64:64-i128:128-f80:128-n8:16:32:64-S128"
target triple = "x86_64-pc-linux-gnu"

%struct.Amap_Man_t_ = type { ptr, ptr, float, float, i32, i32, ptr, ptr, ptr, ptr, ptr, ptr, ptr, ptr, [7 x i32], i32, i32, i32, ptr, ptr, ptr, ptr, ptr, ptr, ptr, ptr, i32, i32, i32, i32 }
%struct.Amap_Cut_t_ = type { i32, [0 x i32] }
%struct.Vec_Int_t_ = type { i32, i32, ptr }

; Function Attrs: inlinehint nounwind uwtable
define internal void @Vec_IntGrow(ptr noundef %0, i32 noundef %1) #3 {
  %3 = alloca ptr, align 8
  %4 = alloca i32, align 4
  store ptr %0, ptr %3, align 8, !tbaa !43
  store i32 %1, ptr %4, align 4, !tbaa !8
  %5 = load ptr, ptr %3, align 8, !tbaa !43
  %6 = getelementptr inbounds nuw %struct.Vec_Int_t_, ptr %5, i32 0, i32 0
  %7 = load i32, ptr %6, align 8, !tbaa !46
  %8 = load i32, ptr %4, align 4, !tbaa !8
  %9 = icmp sge i32 %7, %8
  br i1 %9, label %10, label %11

10:                                               ; preds = %2
  br label %36

11:                                               ; preds = %2
  %12 = load ptr, ptr %3, align 8, !tbaa !43
  %13 = getelementptr inbounds nuw %struct.Vec_Int_t_, ptr %12, i32 0, i32 2
  %14 = load ptr, ptr %13, align 8, !tbaa !47
  %15 = icmp ne ptr %14, null
  br i1 %15, label %16, label %24

16:                                               ; preds = %11
  %17 = load ptr, ptr %3, align 8, !tbaa !43
  %18 = getelementptr inbounds nuw %struct.Vec_Int_t_, ptr %17, i32 0, i32 2
  %19 = load ptr, ptr %18, align 8, !tbaa !47
  %20 = load i32, ptr %4, align 4, !tbaa !8
  %21 = sext i32 %20 to i64
  %22 = mul i64 4, %21
  %23 = call ptr @realloc(ptr noundef %19, i64 noundef %22) #13
  br label %29

24:                                               ; preds = %11
  %25 = load i32, ptr %4, align 4, !tbaa !8
  %26 = sext i32 %25 to i64
  %27 = mul i64 4, %26
  %28 = call noalias ptr @malloc(i64 noundef %27) #11
  br label %29

29:                                               ; preds = %24, %16
  %30 = phi ptr [ %23, %16 ], [ %28, %24 ]
  %31 = load ptr, ptr %3, align 8, !tbaa !43
  %32 = getelementptr inbounds nuw %struct.Vec_Int_t_, ptr %31, i32 0, i32 2
  store ptr %30, ptr %32, align 8, !tbaa !47
  %33 = load i32, ptr %4, align 4, !tbaa !8
  %34 = load ptr, ptr %3, align 8, !tbaa !43
  %35 = getelementptr inbounds nuw %struct.Vec_Int_t_, ptr %34, i32 0, i32 0
  store i32 %33, ptr %35, align 8, !tbaa !46
  br label %36

36:                                               ; preds = %29, %10
  ret void
}

; Function Attrs: inlinehint nounwind uwtable
define internal ptr @Amap_ManCutNextP(ptr noundef %0) #3 {
  %2 = alloca ptr, align 8
  store ptr %0, ptr %2, align 8, !tbaa !26
  %3 = load ptr, ptr %2, align 8, !tbaa !26
  %4 = load ptr, ptr %2, align 8, !tbaa !26
  %5 = load i32, ptr %4, align 4
  %6 = lshr i32 %5, 17
  %7 = sext i32 %6 to i64
  %8 = getelementptr inbounds i32, ptr %3, i64 %7
  %9 = getelementptr inbounds i32, ptr %8, i64 1
  ret ptr %9
}

; Function Attrs: inlinehint nounwind uwtable
define internal void @Vec_IntPushOrder(ptr noundef %0, i32 noundef %1) #3 {
  %3 = alloca ptr, align 8
  %4 = alloca i32, align 4
  %5 = alloca i32, align 4
  store ptr %0, ptr %3, align 8, !tbaa !43
  store i32 %1, ptr %4, align 4, !tbaa !8
  call void @llvm.lifetime.start.p0(i64 4, ptr %5) #10
  %6 = load ptr, ptr %3, align 8, !tbaa !43
  %7 = getelementptr inbounds nuw %struct.Vec_Int_t_, ptr %6, i32 0, i32 1
  %8 = load i32, ptr %7, align 4, !tbaa !44
  %9 = load ptr, ptr %3, align 8, !tbaa !43
  %10 = getelementptr inbounds nuw %struct.Vec_Int_t_, ptr %9, i32 0, i32 0
  %11 = load i32, ptr %10, align 8, !tbaa !46
  %12 = icmp eq i32 %8, %11
  br i1 %12, label %13, label %27

13:                                               ; preds = %2
  %14 = load ptr, ptr %3, align 8, !tbaa !43
  %15 = getelementptr inbounds nuw %struct.Vec_Int_t_, ptr %14, i32 0, i32 0
  %16 = load i32, ptr %15, align 8, !tbaa !46
  %17 = icmp slt i32 %16, 16
  br i1 %17, label %18, label %20

18:                                               ; preds = %13
  %19 = load ptr, ptr %3, align 8, !tbaa !43
  call void @Vec_IntGrow(ptr noundef %19, i32 noundef 16)
  br label %26

20:                                               ; preds = %13
  %21 = load ptr, ptr %3, align 8, !tbaa !43
  %22 = load ptr, ptr %3, align 8, !tbaa !43
  %23 = getelementptr inbounds nuw %struct.Vec_Int_t_, ptr %22, i32 0, i32 0
  %24 = load i32, ptr %23, align 8, !tbaa !46
  %25 = mul nsw i32 2, %24
  call void @Vec_IntGrow(ptr noundef %21, i32 noundef %25)
  br label %26

26:                                               ; preds = %20, %18
  br label %27

27:                                               ; preds = %26, %2
  %28 = load ptr, ptr %3, align 8, !tbaa !43
  %29 = getelementptr inbounds nuw %struct.Vec_Int_t_, ptr %28, i32 0, i32 1
  %30 = load i32, ptr %29, align 4, !tbaa !44
  %31 = add nsw i32 %30, 1
  store i32 %31, ptr %29, align 4, !tbaa !44
  %32 = load ptr, ptr %3, align 8, !tbaa !43
  %33 = getelementptr inbounds nuw %struct.Vec_Int_t_, ptr %32, i32 0, i32 1
  %34 = load i32, ptr %33, align 4, !tbaa !44
  %35 = sub nsw i32 %34, 2
  store i32 %35, ptr %5, align 4, !tbaa !8
  br label %36

36:                                               ; preds = %66, %27
  %37 = load i32, ptr %5, align 4, !tbaa !8
  %38 = icmp sge i32 %37, 0
  br i1 %38, label %39, label %69

39:                                               ; preds = %36
  %40 = load ptr, ptr %3, align 8, !tbaa !43
  %41 = getelementptr inbounds nuw %struct.Vec_Int_t_, ptr %40, i32 0, i32 2
  %42 = load ptr, ptr %41, align 8, !tbaa !47
  %43 = load i32, ptr %5, align 4, !tbaa !8
  %44 = sext i32 %43 to i64
  %45 = getelementptr inbounds i32, ptr %42, i64 %44
  %46 = load i32, ptr %45, align 4, !tbaa !8
  %47 = load i32, ptr %4, align 4, !tbaa !8
  %48 = icmp sgt i32 %46, %47
  br i1 %48, label %49, label %64

49:                                               ; preds = %39
  %50 = load ptr, ptr %3, align 8, !tbaa !43
  %51 = getelementptr inbounds nuw %struct.Vec_Int_t_, ptr %50, i32 0, i32 2
  %52 = load ptr, ptr %51, align 8, !tbaa !47
  %53 = load i32, ptr %5, align 4, !tbaa !8
  %54 = sext i32 %53 to i64
  %55 = getelementptr inbounds i32, ptr %52, i64 %54
  %56 = load i32, ptr %55, align 4, !tbaa !8
  %57 = load ptr, ptr %3, align 8, !tbaa !43
  %58 = getelementptr inbounds nuw %struct.Vec_Int_t_, ptr %57, i32 0, i32 2
  %59 = load ptr, ptr %58, align 8, !tbaa !47
  %60 = load i32, ptr %5, align 4, !tbaa !8
  %61 = add nsw i32 %60, 1
  %62 = sext i32 %61 to i64
  %63 = getelementptr inbounds i32, ptr %59, i64 %62
  store i32 %56, ptr %63, align 4, !tbaa !8
  br label %65

64:                                               ; preds = %39
  br label %69

65:                                               ; preds = %49
  br label %66

66:                                               ; preds = %65
  %67 = load i32, ptr %5, align 4, !tbaa !8
  %68 = add nsw i32 %67, -1
  store i32 %68, ptr %5, align 4, !tbaa !8
  br label %36, !llvm.loop !48

69:                                               ; preds = %64, %36
  %70 = load i32, ptr %4, align 4, !tbaa !8
  %71 = load ptr, ptr %3, align 8, !tbaa !43
  %72 = getelementptr inbounds nuw %struct.Vec_Int_t_, ptr %71, i32 0, i32 2
  %73 = load ptr, ptr %72, align 8, !tbaa !47
  %74 = load i32, ptr %5, align 4, !tbaa !8
  %75 = add nsw i32 %74, 1
  %76 = sext i32 %75 to i64
  %77 = getelementptr inbounds i32, ptr %73, i64 %76
  store i32 %70, ptr %77, align 4, !tbaa !8
  call void @llvm.lifetime.end.p0(i64 4, ptr %5) #10
  ret void
}

; Function Attrs: nounwind uwtable
define ptr @Amap_ManCutCreate3(ptr noundef %0, ptr noundef %1, ptr noundef %2, ptr noundef %3, i32 noundef %4) #0 {
  %6 = alloca ptr, align 8
  %7 = alloca ptr, align 8
  %8 = alloca ptr, align 8
  %9 = alloca ptr, align 8
  %10 = alloca i32, align 4
  %11 = alloca ptr, align 8
  %12 = alloca i32, align 4
  %13 = alloca i32, align 4
  %14 = alloca i32, align 4
  store ptr %0, ptr %6, align 8, !tbaa !3
  store ptr %1, ptr %7, align 8, !tbaa !26
  store ptr %2, ptr %8, align 8, !tbaa !26
  store ptr %3, ptr %9, align 8, !tbaa !26
  store i32 %4, ptr %10, align 4, !tbaa !8
  call void @llvm.lifetime.start.p0(i64 8, ptr %11) #10
  call void @llvm.lifetime.start.p0(i64 4, ptr %12) #10
  call void @llvm.lifetime.start.p0(i64 4, ptr %13) #10
  %15 = load ptr, ptr %7, align 8, !tbaa !26
  %16 = load i32, ptr %15, align 4
  %17 = lshr i32 %16, 17
  %18 = load ptr, ptr %8, align 8, !tbaa !26
  %19 = load i32, ptr %18, align 4
  %20 = lshr i32 %19, 17
  %21 = add nsw i32 %17, %20
  %22 = load ptr, ptr %9, align 8, !tbaa !26
  %23 = load i32, ptr %22, align 4
  %24 = lshr i32 %23, 17
  %25 = add nsw i32 %21, %24
  store i32 %25, ptr %13, align 4, !tbaa !8
  call void @llvm.lifetime.start.p0(i64 4, ptr %14) #10
  %26 = load i32, ptr %13, align 4, !tbaa !8
  %27 = sext i32 %26 to i64
  %28 = mul i64 4, %27
  %29 = add i64 4, %28
  %30 = add i64 %29, 8
  %31 = trunc i64 %30 to i32
  store i32 %31, ptr %14, align 4, !tbaa !8
  %32 = load ptr, ptr %6, align 8, !tbaa !3
  %33 = getelementptr inbounds nuw %struct.Amap_Man_t_, ptr %32, i32 0, i32 12
  %34 = load ptr, ptr %33, align 8, !tbaa !40
  %35 = load i32, ptr %14, align 4, !tbaa !8
  %36 = call ptr @Aig_MmFlexEntryFetch(ptr noundef %34, i32 noundef %35)
  store ptr %36, ptr %11, align 8, !tbaa !26
  %37 = load i32, ptr %10, align 4, !tbaa !8
  %38 = load ptr, ptr %11, align 8, !tbaa !26
  %39 = load i32, ptr %38, align 4
  %40 = and i32 %37, 65535
  %41 = and i32 %39, -65536
  %42 = or i32 %41, %40
  store i32 %42, ptr %38, align 4
  %43 = load ptr, ptr %11, align 8, !tbaa !26
  %44 = load i32, ptr %43, align 4
  %45 = and i32 %44, -65537
  %46 = or i32 %45, 0
  store i32 %46, ptr %43, align 4
  %47 = load i32, ptr %13, align 4, !tbaa !8
  %48 = load ptr, ptr %11, align 8, !tbaa !26
  %49 = load i32, ptr %48, align 4
  %50 = and i32 %47, 32767
  %51 = shl i32 %50, 17
  %52 = and i32 %49, 131071
  %53 = or i32 %52, %51
  store i32 %53, ptr %48, align 4
  store i32 0, ptr %12, align 4, !tbaa !8
  br label %54

54:                                               ; preds = %72, %5
  %55 = load i32, ptr %12, align 4, !tbaa !8
  %56 = load ptr, ptr %7, align 8, !tbaa !26
  %57 = load i32, ptr %56, align 4
  %58 = lshr i32 %57, 17
  %59 = icmp slt i32 %55, %58
  br i1 %59, label %60, label %75

60:                                               ; preds = %54
  %61 = load ptr, ptr %7, align 8, !tbaa !26
  %62 = getelementptr inbounds nuw %struct.Amap_Cut_t_, ptr %61, i32 0, i32 1
  %63 = load i32, ptr %12, align 4, !tbaa !8
  %64 = sext i32 %63 to i64
  %65 = getelementptr inbounds [0 x i32], ptr %62, i64 0, i64 %64
  %66 = load i32, ptr %65, align 4, !tbaa !8
  %67 = load ptr, ptr %11, align 8, !tbaa !26
  %68 = getelementptr inbounds nuw %struct.Amap_Cut_t_, ptr %67, i32 0, i32 1
  %69 = load i32, ptr %12, align 4, !tbaa !8
  %70 = sext i32 %69 to i64
  %71 = getelementptr inbounds [0 x i32], ptr %68, i64 0, i64 %70
  store i32 %66, ptr %71, align 4, !tbaa !8
  br label %72

72:                                               ; preds = %60
  %73 = load i32, ptr %12, align 4, !tbaa !8
  %74 = add nsw i32 %73, 1
  store i32 %74, ptr %12, align 4, !tbaa !8
  br label %54, !llvm.loop !51

75:                                               ; preds = %54
  store i32 0, ptr %12, align 4, !tbaa !8
  br label %76

76:                                               ; preds = %98, %75
  %77 = load i32, ptr %12, align 4, !tbaa !8
  %78 = load ptr, ptr %8, align 8, !tbaa !26
  %79 = load i32, ptr %78, align 4
  %80 = lshr i32 %79, 17
  %81 = icmp slt i32 %77, %80
  br i1 %81, label %82, label %101

82:                                               ; preds = %76
  %83 = load ptr, ptr %8, align 8, !tbaa !26
  %84 = getelementptr inbounds nuw %struct.Amap_Cut_t_, ptr %83, i32 0, i32 1
  %85 = load i32, ptr %12, align 4, !tbaa !8
  %86 = sext i32 %85 to i64
  %87 = getelementptr inbounds [0 x i32], ptr %84, i64 0, i64 %86
  %88 = load i32, ptr %87, align 4, !tbaa !8
  %89 = load ptr, ptr %11, align 8, !tbaa !26
  %90 = getelementptr inbounds nuw %struct.Amap_Cut_t_, ptr %89, i32 0, i32 1
  %91 = load ptr, ptr %7, align 8, !tbaa !26
  %92 = load i32, ptr %91, align 4
  %93 = lshr i32 %92, 17
  %94 = load i32, ptr %12, align 4, !tbaa !8
  %95 = add nsw i32 %93, %94
  %96 = sext i32 %95 to i64
  %97 = getelementptr inbounds [0 x i32], ptr %90, i64 0, i64 %96
  store i32 %88, ptr %97, align 4, !tbaa !8
  br label %98

98:                                               ; preds = %82
  %99 = load i32, ptr %12, align 4, !tbaa !8
  %100 = add nsw i32 %99, 1
  store i32 %100, ptr %12, align 4, !tbaa !8
  br label %76, !llvm.loop !52

101:                                              ; preds = %76
  store i32 0, ptr %12, align 4, !tbaa !8
  br label %102

102:                                              ; preds = %128, %101
  %103 = load i32, ptr %12, align 4, !tbaa !8
  %104 = load ptr, ptr %9, align 8, !tbaa !26
  %105 = load i32, ptr %104, align 4
  %106 = lshr i32 %105, 17
  %107 = icmp slt i32 %103, %106
  br i1 %107, label %108, label %131

108:                                              ; preds = %102
  %109 = load ptr, ptr %9, align 8, !tbaa !26
  %110 = getelementptr inbounds nuw %struct.Amap_Cut_t_, ptr %109, i32 0, i32 1
  %111 = load i32, ptr %12, align 4, !tbaa !8
  %112 = sext i32 %111 to i64
  %113 = getelementptr inbounds [0 x i32], ptr %110, i64 0, i64 %112
  %114 = load i32, ptr %113, align 4, !tbaa !8
  %115 = load ptr, ptr %11, align 8, !tbaa !26
  %116 = getelementptr inbounds nuw %struct.Amap_Cut_t_, ptr %115, i32 0, i32 1
  %117 = load ptr, ptr %7, align 8, !tbaa !26
  %118 = load i32, ptr %117, align 4
  %119 = lshr i32 %118, 17
  %120 = load ptr, ptr %8, align 8, !tbaa !26
  %121 = load i32, ptr %120, align 4
  %122 = lshr i32 %121, 17
  %123 = add nsw i32 %119, %122
  %124 = load i32, ptr %12, align 4, !tbaa !8
  %125 = add nsw i32 %123, %124
  %126 = sext i32 %125 to i64
  %127 = getelementptr inbounds [0 x i32], ptr %116, i64 0, i64 %126
  store i32 %114, ptr %127, align 4, !tbaa !8
  br label %128

128:                                              ; preds = %108
  %129 = load i32, ptr %12, align 4, !tbaa !8
  %130 = add nsw i32 %129, 1
  store i32 %130, ptr %12, align 4, !tbaa !8
  br label %102, !llvm.loop !53

131:                                              ; preds = %102
  %132 = load ptr, ptr %6, align 8, !tbaa !3
  %133 = getelementptr inbounds nuw %struct.Amap_Man_t_, ptr %132, i32 0, i32 20
  %134 = load ptr, ptr %133, align 8, !tbaa !41
  %135 = load ptr, ptr %11, align 8, !tbaa !26
  %136 = load i32, ptr %135, align 4
  %137 = and i32 %136, 65535
  %138 = zext i32 %137 to i64
  %139 = getelementptr inbounds nuw ptr, ptr %134, i64 %138
  %140 = load ptr, ptr %139, align 8, !tbaa !26
  %141 = icmp eq ptr %140, null
  br i1 %141, label %142, label %149

142:                                              ; preds = %131
  %143 = load ptr, ptr %6, align 8, !tbaa !3
  %144 = getelementptr inbounds nuw %struct.Amap_Man_t_, ptr %143, i32 0, i32 18
  %145 = load ptr, ptr %144, align 8, !tbaa !42
  %146 = load ptr, ptr %11, align 8, !tbaa !26
  %147 = load i32, ptr %146, align 4
  %148 = and i32 %147, 65535
  call void @Vec_IntPushOrder(ptr noundef %145, i32 noundef %148)
  br label %149

149:                                              ; preds = %142, %131
  %150 = load ptr, ptr %6, align 8, !tbaa !3
  %151 = getelementptr inbounds nuw %struct.Amap_Man_t_, ptr %150, i32 0, i32 20
  %152 = load ptr, ptr %151, align 8, !tbaa !41
  %153 = load ptr, ptr %11, align 8, !tbaa !26
  %154 = load i32, ptr %153, align 4
  %155 = and i32 %154, 65535
  %156 = zext i32 %155 to i64
  %157 = getelementptr inbounds nuw ptr, ptr %152, i64 %156
  %158 = load ptr, ptr %157, align 8, !tbaa !26
  %159 = load ptr, ptr %11, align 8, !tbaa !26
  %160 = call ptr @Amap_ManCutNextP(ptr noundef %159)
  store ptr %158, ptr %160, align 8, !tbaa !26
  %161 = load ptr, ptr %11, align 8, !tbaa !26
  %162 = load ptr, ptr %6, align 8, !tbaa !3
  %163 = getelementptr inbounds nuw %struct.Amap_Man_t_, ptr %162, i32 0, i32 20
  %164 = load ptr, ptr %163, align 8, !tbaa !41
  %165 = load ptr, ptr %11, align 8, !tbaa !26
  %166 = load i32, ptr %165, align 4
  %167 = and i32 %166, 65535
  %168 = zext i32 %167 to i64
  %169 = getelementptr inbounds nuw ptr, ptr %164, i64 %168
  store ptr %161, ptr %169, align 8, !tbaa !26
  %170 = load ptr, ptr %11, align 8, !tbaa !26
  call void @llvm.lifetime.end.p0(i64 4, ptr %14) #10
  call void @llvm.lifetime.end.p0(i64 4, ptr %13) #10
  call void @llvm.lifetime.end.p0(i64 4, ptr %12) #10
  call void @llvm.lifetime.end.p0(i64 8, ptr %11) #10
  ret ptr %170
}