; Function Attrs: nounwind uwtable
define noundef ptr @Amap_ManCutCreate3(ptr noundef readonly captures(none) %0, ptr noundef readonly captures(none) %1, ptr noundef readonly captures(none) %2, ptr noundef readonly captures(none) %3, i32 noundef %4) local_unnamed_addr #3 {
  %6 = load i32, ptr %1, align 4
  %7 = lshr i32 %6, 17
  %8 = load i32, ptr %2, align 4
  %9 = lshr i32 %8, 17
  %10 = add nuw nsw i32 %9, %7
  %11 = load i32, ptr %3, align 4
  %12 = lshr i32 %11, 17
  %13 = add nuw nsw i32 %10, %12
  %14 = shl nuw nsw i32 %13, 2
  %narrow = add nuw nsw i32 %14, 12
  %15 = getelementptr inbounds nuw i8, ptr %0, i64 80
  %16 = load ptr, ptr %15, align 8, !tbaa !33
  %17 = tail call ptr @Aig_MmFlexEntryFetch(ptr noundef %16, i32 noundef %narrow) #16
  %18 = and i32 %4, 65535
  %19 = shl i32 %13, 17
  %20 = or disjoint i32 %19, %18
  store i32 %20, ptr %17, align 4
  %21 = load i32, ptr %1, align 4
  %.not = icmp ult i32 %21, 131072
  br i1 %.not, label %.preheader45, label %.lr.ph

.lr.ph:                                           ; preds = %5
  %22 = getelementptr inbounds nuw i8, ptr %1, i64 4
  %23 = getelementptr inbounds nuw i8, ptr %17, i64 4
  br label %27

.preheader45:                                     ; preds = %27, %5
  %24 = load i32, ptr %2, align 4
  %.not52 = icmp ult i32 %24, 131072
  br i1 %.not52, label %.preheader, label %.lr.ph49

.lr.ph49:                                         ; preds = %.preheader45
  %25 = getelementptr inbounds nuw i8, ptr %2, i64 4
  %26 = getelementptr inbounds nuw i8, ptr %17, i64 4
  br label %38

27:                                               ; preds = %.lr.ph, %27
  %indvars.iv = phi i64 [ 0, %.lr.ph ], [ %indvars.iv.next, %27 ]
  %28 = getelementptr inbounds nuw [0 x i32], ptr %22, i64 0, i64 %indvars.iv
  %29 = load i32, ptr %28, align 4, !tbaa !3
  %30 = getelementptr inbounds nuw [0 x i32], ptr %23, i64 0, i64 %indvars.iv
  store i32 %29, ptr %30, align 4, !tbaa !3
  %indvars.iv.next = add nuw nsw i64 %indvars.iv, 1
  %31 = load i32, ptr %1, align 4
  %32 = lshr i32 %31, 17
  %33 = zext nneg i32 %32 to i64
  %34 = icmp samesign ult i64 %indvars.iv.next, %33
  br i1 %34, label %27, label %.preheader45, !llvm.loop !44

.preheader:                                       ; preds = %38, %.preheader45
  %35 = load i32, ptr %3, align 4
  %.not53 = icmp ult i32 %35, 131072
  br i1 %.not53, label %._crit_edge, label %.lr.ph51

.lr.ph51:                                         ; preds = %.preheader
  %36 = getelementptr inbounds nuw i8, ptr %3, i64 4
  %37 = getelementptr inbounds nuw i8, ptr %17, i64 4
  br label %50

38:                                               ; preds = %.lr.ph49, %38
  %indvars.iv56 = phi i64 [ 0, %.lr.ph49 ], [ %indvars.iv.next57, %38 ]
  %39 = getelementptr inbounds nuw [0 x i32], ptr %25, i64 0, i64 %indvars.iv56
  %40 = load i32, ptr %39, align 4, !tbaa !3
  %41 = load i32, ptr %1, align 4
  %42 = lshr i32 %41, 17
  %43 = zext nneg i32 %42 to i64
  %44 = add nuw nsw i64 %indvars.iv56, %43
  %45 = getelementptr inbounds nuw [0 x i32], ptr %26, i64 0, i64 %44
  store i32 %40, ptr %45, align 4, !tbaa !3
  %indvars.iv.next57 = add nuw nsw i64 %indvars.iv56, 1
  %46 = load i32, ptr %2, align 4
  %47 = lshr i32 %46, 17
  %48 = zext nneg i32 %47 to i64
  %49 = icmp samesign ult i64 %indvars.iv.next57, %48
  br i1 %49, label %38, label %.preheader, !llvm.loop !45

50:                                               ; preds = %.lr.ph51, %50
  %indvars.iv59 = phi i64 [ 0, %.lr.ph51 ], [ %indvars.iv.next60, %50 ]
  %51 = getelementptr inbounds nuw [0 x i32], ptr %36, i64 0, i64 %indvars.iv59
  %52 = load i32, ptr %51, align 4, !tbaa !3
  %53 = load i32, ptr %1, align 4
  %54 = lshr i32 %53, 17
  %55 = load i32, ptr %2, align 4
  %56 = lshr i32 %55, 17
  %57 = trunc nuw nsw i64 %indvars.iv59 to i32
  %58 = add nuw nsw i32 %54, %57
  %59 = add nuw nsw i32 %58, %56
  %60 = zext nneg i32 %59 to i64
  %61 = getelementptr inbounds nuw [0 x i32], ptr %37, i64 0, i64 %60
  store i32 %52, ptr %61, align 4, !tbaa !3
  %indvars.iv.next60 = add nuw nsw i64 %indvars.iv59, 1
  %62 = load i32, ptr %3, align 4
  %63 = lshr i32 %62, 17
  %64 = zext nneg i32 %63 to i64
  %65 = icmp samesign ult i64 %indvars.iv.next60, %64
  br i1 %65, label %50, label %._crit_edge, !llvm.loop !46

._crit_edge:                                      ; preds = %50, %.preheader
  %66 = getelementptr inbounds nuw i8, ptr %0, i64 152
  %67 = load ptr, ptr %66, align 8, !tbaa !34
  %68 = zext nneg i32 %18 to i64
  %69 = getelementptr inbounds nuw ptr, ptr %67, i64 %68
  %70 = load ptr, ptr %69, align 8, !tbaa !35
  %71 = icmp eq ptr %70, null
  br i1 %71, label %72, label %117

72:                                               ; preds = %._crit_edge
  %73 = getelementptr inbounds nuw i8, ptr %0, i64 136
  %74 = load ptr, ptr %73, align 8, !tbaa !36
  %75 = getelementptr inbounds nuw i8, ptr %74, i64 4
  %76 = load i32, ptr %75, align 4, !tbaa !37
  %77 = load i32, ptr %74, align 8, !tbaa !39
  %78 = icmp eq i32 %76, %77
  br i1 %78, label %79, label %.Vec_IntGrow.exit23.i_crit_edge

.Vec_IntGrow.exit23.i_crit_edge:                  ; preds = %72
  %.phi.trans.insert = getelementptr inbounds nuw i8, ptr %74, i64 8
  %.pre = load ptr, ptr %.phi.trans.insert, align 8, !tbaa !40
  br label %Vec_IntGrow.exit23.i

79:                                               ; preds = %72
  %80 = icmp slt i32 %76, 16
  br i1 %80, label %81, label %89

81:                                               ; preds = %79
  %82 = getelementptr inbounds nuw i8, ptr %74, i64 8
  %83 = load ptr, ptr %82, align 8, !tbaa !40
  %.not9.i.i = icmp eq ptr %83, null
  br i1 %.not9.i.i, label %86, label %84

84:                                               ; preds = %81
  %85 = tail call dereferenceable_or_null(64) ptr @realloc(ptr noundef nonnull %83, i64 noundef 64) #17
  br label %Vec_IntGrow.exit.i

86:                                               ; preds = %81
  %87 = tail call noalias dereferenceable_or_null(64) ptr @malloc(i64 noundef 64) #15
  br label %Vec_IntGrow.exit.i

Vec_IntGrow.exit.i:                               ; preds = %86, %84
  %88 = phi ptr [ %85, %84 ], [ %87, %86 ]
  store ptr %88, ptr %82, align 8, !tbaa !40
  br label %Vec_IntGrow.exit23thread-pre-split.i

89:                                               ; preds = %79
  %90 = shl nuw nsw i32 %76, 1
  %91 = getelementptr inbounds nuw i8, ptr %74, i64 8
  %92 = load ptr, ptr %91, align 8, !tbaa !40
  %.not9.i22.i = icmp eq ptr %92, null
  %93 = zext nneg i32 %90 to i64
  %94 = shl nuw nsw i64 %93, 2
  br i1 %.not9.i22.i, label %97, label %95

95:                                               ; preds = %89
  %96 = tail call ptr @realloc(ptr noundef nonnull %92, i64 noundef %94) #17
  br label %99

97:                                               ; preds = %89
  %98 = tail call noalias ptr @malloc(i64 noundef %94) #15
  br label %99

99:                                               ; preds = %97, %95
  %100 = phi ptr [ %96, %95 ], [ %98, %97 ]
  store ptr %100, ptr %91, align 8, !tbaa !40
  br label %Vec_IntGrow.exit23thread-pre-split.i

Vec_IntGrow.exit23thread-pre-split.i:             ; preds = %99, %Vec_IntGrow.exit.i
  %101 = phi ptr [ %88, %Vec_IntGrow.exit.i ], [ %100, %99 ]
  %.sink.i = phi i32 [ 16, %Vec_IntGrow.exit.i ], [ %90, %99 ]
  store i32 %.sink.i, ptr %74, align 8, !tbaa !39
  %.pr.i = load i32, ptr %75, align 4, !tbaa !37
  br label %Vec_IntGrow.exit23.i

Vec_IntGrow.exit23.i:                             ; preds = %.Vec_IntGrow.exit23.i_crit_edge, %Vec_IntGrow.exit23thread-pre-split.i
  %102 = phi ptr [ %101, %Vec_IntGrow.exit23thread-pre-split.i ], [ %.pre, %.Vec_IntGrow.exit23.i_crit_edge ]
  %103 = phi i32 [ %.pr.i, %Vec_IntGrow.exit23thread-pre-split.i ], [ %76, %.Vec_IntGrow.exit23.i_crit_edge ]
  %104 = add nsw i32 %103, 1
  store i32 %104, ptr %75, align 4, !tbaa !37
  %105 = icmp sgt i32 %103, 0
  br i1 %105, label %.lr.ph.i, label %Vec_IntPushOrder.exit

.lr.ph.i:                                         ; preds = %Vec_IntGrow.exit23.i
  %106 = zext nneg i32 %103 to i64
  br label %107

107:                                              ; preds = %111, %.lr.ph.i
  %indvars.iv.i = phi i64 [ %106, %.lr.ph.i ], [ %indvars.iv.next.i, %111 ]
  %indvars.iv.next.i = add nsw i64 %indvars.iv.i, -1
  %108 = getelementptr inbounds nuw i32, ptr %102, i64 %indvars.iv.next.i
  %109 = load i32, ptr %108, align 4, !tbaa !3
  %110 = icmp sgt i32 %109, %18
  br i1 %110, label %111, label %._crit_edge.loopexit.split.loop.exit.i

111:                                              ; preds = %107
  %112 = getelementptr inbounds nuw i32, ptr %102, i64 %indvars.iv.i
  store i32 %109, ptr %112, align 4, !tbaa !3
  %113 = icmp samesign ugt i64 %indvars.iv.i, 1
  br i1 %113, label %107, label %Vec_IntPushOrder.exit, !llvm.loop !41

._crit_edge.loopexit.split.loop.exit.i:           ; preds = %107
  %114 = trunc nuw nsw i64 %indvars.iv.i to i32
  br label %Vec_IntPushOrder.exit

Vec_IntPushOrder.exit:                            ; preds = %111, %Vec_IntGrow.exit23.i, %._crit_edge.loopexit.split.loop.exit.i
  %.0.in.lcssa.i = phi i32 [ %103, %Vec_IntGrow.exit23.i ], [ %114, %._crit_edge.loopexit.split.loop.exit.i ], [ 0, %111 ]
  %115 = sext i32 %.0.in.lcssa.i to i64
  %116 = getelementptr inbounds i32, ptr %102, i64 %115
  store i32 %18, ptr %116, align 4, !tbaa !3
  %.pre62 = load ptr, ptr %66, align 8, !tbaa !34
  %.pre63 = load i32, ptr %17, align 4
  br label %117

117:                                              ; preds = %Vec_IntPushOrder.exit, %._crit_edge
  %118 = phi i32 [ %.pre63, %Vec_IntPushOrder.exit ], [ %20, %._crit_edge ]
  %119 = phi ptr [ %.pre62, %Vec_IntPushOrder.exit ], [ %67, %._crit_edge ]
  %120 = and i32 %118, 65535
  %121 = zext nneg i32 %120 to i64
  %122 = getelementptr inbounds nuw ptr, ptr %119, i64 %121
  %123 = load ptr, ptr %122, align 8, !tbaa !35
  %124 = lshr i32 %118, 17
  %125 = zext nneg i32 %124 to i64
  %126 = getelementptr inbounds nuw i32, ptr %17, i64 %125
  %127 = getelementptr inbounds nuw i8, ptr %126, i64 4
  store ptr %123, ptr %127, align 8, !tbaa !35
  store ptr %17, ptr %122, align 8, !tbaa !35
  ret ptr %17
}